target datalayout = "e-m:e-p270:32:32-p271:32:32-p272:64:64-i64:64-i128:128-f80:128-n8:16:32:64-S128"
target triple = "x86_64-pc-linux-gnu"

%struct.Node = type { i32 }
%struct.Expr = type { i32 }
%union.ListCell = type { ptr }
%struct.ForEachState = type { ptr, i32 }
%struct.List = type { i32, i32, i32, ptr, [0 x %union.ListCell] }
%struct.MinMaxExpr = type { %struct.Expr, i32, i32, i32, i32, ptr, i32 }

@.str.114 = private unnamed_addr constant [9 x i8] c"GREATEST\00", align 1
@.str.115 = private unnamed_addr constant [6 x i8] c"LEAST\00", align 1

; Function Attrs: inlinehint nounwind uwtable
define internal ptr @newNode(i64 noundef %0, i32 noundef %1) #4 {
  %3 = alloca i64, align 8
  %4 = alloca i32, align 4
  %5 = alloca ptr, align 8
  store i64 %0, ptr %3, align 8
  store i32 %1, ptr %4, align 4
  call void @llvm.lifetime.start.p0(i64 8, ptr %5) #8
  %6 = load i64, ptr %3, align 8
  %7 = call ptr @palloc0(i64 noundef %6)
  store ptr %7, ptr %5, align 8
  %8 = load i32, ptr %4, align 4
  %9 = load ptr, ptr %5, align 8
  %10 = getelementptr inbounds nuw %struct.Node, ptr %9, i32 0, i32 0
  store i32 %8, ptr %10, align 4
  %11 = load ptr, ptr %5, align 8
  call void @llvm.lifetime.end.p0(i64 8, ptr %5) #8
  ret ptr %11
}

; Function Attrs: nounwind uwtable
define internal ptr @transformMinMaxExpr(ptr noundef %0, ptr noundef %1) #0 {
  %3 = alloca ptr, align 8
  %4 = alloca ptr, align 8
  %5 = alloca ptr, align 8
  %6 = alloca ptr, align 8
  %7 = alloca ptr, align 8
  %8 = alloca ptr, align 8
  %9 = alloca ptr, align 8
  %10 = alloca %struct.ForEachState, align 8
  %11 = alloca ptr, align 8
  %12 = alloca ptr, align 8
  %13 = alloca %struct.ForEachState, align 8
  %14 = alloca ptr, align 8
  %15 = alloca ptr, align 8
  store ptr %0, ptr %3, align 8
  store ptr %1, ptr %4, align 8
  call void @llvm.lifetime.start.p0(i64 8, ptr %5) #8
  %16 = call ptr @newNode(i64 noundef 40, i32 noundef 39)
  store ptr %16, ptr %5, align 8
  call void @llvm.lifetime.start.p0(i64 8, ptr %6) #8
  store ptr null, ptr %6, align 8
  call void @llvm.lifetime.start.p0(i64 8, ptr %7) #8
  store ptr null, ptr %7, align 8
  call void @llvm.lifetime.start.p0(i64 8, ptr %8) #8
  %17 = load ptr, ptr %4, align 8
  %18 = getelementptr inbounds nuw %struct.MinMaxExpr, ptr %17, i32 0, i32 4
  %19 = load i32, ptr %18, align 8
  %20 = icmp eq i32 %19, 0
  %21 = select i1 %20, ptr @.str.114, ptr @.str.115
  store ptr %21, ptr %8, align 8
  call void @llvm.lifetime.start.p0(i64 8, ptr %9) #8
  %22 = load ptr, ptr %4, align 8
  %23 = getelementptr inbounds nuw %struct.MinMaxExpr, ptr %22, i32 0, i32 4
  %24 = load i32, ptr %23, align 8
  %25 = load ptr, ptr %5, align 8
  %26 = getelementptr inbounds nuw %struct.MinMaxExpr, ptr %25, i32 0, i32 4
  store i32 %24, ptr %26, align 8
  call void @llvm.lifetime.start.p0(i64 16, ptr %10) #8
  %27 = getelementptr inbounds nuw %struct.ForEachState, ptr %10, i32 0, i32 0
  %28 = load ptr, ptr %4, align 8
  %29 = getelementptr inbounds nuw %struct.MinMaxExpr, ptr %28, i32 0, i32 5
  %30 = load ptr, ptr %29, align 8
  store ptr %30, ptr %27, align 8
  %31 = getelementptr inbounds nuw %struct.ForEachState, ptr %10, i32 0, i32 1
  store i32 0, ptr %31, align 8
  %32 = getelementptr i8, ptr %10, i64 12
  call void @llvm.memset.p0.i64(ptr align 4 %32, i8 0, i64 4, i1 false)
  br label %33

33:                                               ; preds = %68, %2
  %34 = getelementptr inbounds nuw %struct.ForEachState, ptr %10, i32 0, i32 0
  %35 = load ptr, ptr %34, align 8
  %36 = icmp ne ptr %35, null
  br i1 %36, label %37, label %54

37:                                               ; preds = %33
  %38 = getelementptr inbounds nuw %struct.ForEachState, ptr %10, i32 0, i32 1
  %39 = load i32, ptr %38, align 8
  %40 = getelementptr inbounds nuw %struct.ForEachState, ptr %10, i32 0, i32 0
  %41 = load ptr, ptr %40, align 8
  %42 = getelementptr inbounds nuw %struct.List, ptr %41, i32 0, i32 1
  %43 = load i32, ptr %42, align 4
  %44 = icmp slt i32 %39, %43
  br i1 %44, label %45, label %54

45:                                               ; preds = %37
  %46 = getelementptr inbounds nuw %struct.ForEachState, ptr %10, i32 0, i32 0
  %47 = load ptr, ptr %46, align 8
  %48 = getelementptr inbounds nuw %struct.List, ptr %47, i32 0, i32 3
  %49 = load ptr, ptr %48, align 8
  %50 = getelementptr inbounds nuw %struct.ForEachState, ptr %10, i32 0, i32 1
  %51 = load i32, ptr %50, align 8
  %52 = sext i32 %51 to i64
  %53 = getelementptr inbounds %union.ListCell, ptr %49, i64 %52
  store ptr %53, ptr %9, align 8
  br label %55

54:                                               ; preds = %37, %33
  store ptr null, ptr %9, align 8
  br label %55

55:                                               ; preds = %54, %45
  %56 = phi i32 [ 1, %45 ], [ 0, %54 ]
  %57 = icmp ne i32 %56, 0
  br i1 %57, label %59, label %58

58:                                               ; preds = %55
  call void @llvm.lifetime.end.p0(i64 16, ptr %10) #8
  br label %72

59:                                               ; preds = %55
  call void @llvm.lifetime.start.p0(i64 8, ptr %11) #8
  %60 = load ptr, ptr %9, align 8
  %61 = load ptr, ptr %60, align 8
  store ptr %61, ptr %11, align 8
  call void @llvm.lifetime.start.p0(i64 8, ptr %12) #8
  %62 = load ptr, ptr %3, align 8
  %63 = load ptr, ptr %11, align 8
  %64 = call ptr @transformExprRecurse(ptr noundef %62, ptr noundef %63)
  store ptr %64, ptr %12, align 8
  %65 = load ptr, ptr %6, align 8
  %66 = load ptr, ptr %12, align 8
  %67 = call ptr @lappend(ptr noundef %65, ptr noundef %66)
  store ptr %67, ptr %6, align 8
  call void @llvm.lifetime.end.p0(i64 8, ptr %12) #8
  call void @llvm.lifetime.end.p0(i64 8, ptr %11) #8
  br label %68

68:                                               ; preds = %59
  %69 = getelementptr inbounds nuw %struct.ForEachState, ptr %10, i32 0, i32 1
  %70 = load i32, ptr %69, align 8
  %71 = add i32 %70, 1
  store i32 %71, ptr %69, align 8
  br label %33, !llvm.loop !23

72:                                               ; preds = %58
  %73 = load ptr, ptr %3, align 8
  %74 = load ptr, ptr %6, align 8
  %75 = load ptr, ptr %8, align 8
  %76 = call i32 @select_common_type(ptr noundef %73, ptr noundef %74, ptr noundef %75, ptr noundef null)
  %77 = load ptr, ptr %5, align 8
  %78 = getelementptr inbounds nuw %struct.MinMaxExpr, ptr %77, i32 0, i32 1
  store i32 %76, ptr %78, align 4
  call void @llvm.lifetime.start.p0(i64 16, ptr %13) #8
  %79 = getelementptr inbounds nuw %struct.ForEachState, ptr %13, i32 0, i32 0
  %80 = load ptr, ptr %6, align 8
  store ptr %80, ptr %79, align 8
  %81 = getelementptr inbounds nuw %struct.ForEachState, ptr %13, i32 0, i32 1
  store i32 0, ptr %81, align 8
  %82 = getelementptr i8, ptr %13, i64 12
  call void @llvm.memset.p0.i64(ptr align 4 %82, i8 0, i64 4, i1 false)
  br label %83

83:                                               ; preds = %122, %72
  %84 = getelementptr inbounds nuw %struct.ForEachState, ptr %13, i32 0, i32 0
  %85 = load ptr, ptr %84, align 8
  %86 = icmp ne ptr %85, null
  br i1 %86, label %87, label %104

87:                                               ; preds = %83
  %88 = getelementptr inbounds nuw %struct.ForEachState, ptr %13, i32 0, i32 1
  %89 = load i32, ptr %88, align 8
  %90 = getelementptr inbounds nuw %struct.ForEachState, ptr %13, i32 0, i32 0
  %91 = load ptr, ptr %90, align 8
  %92 = getelementptr inbounds nuw %struct.List, ptr %91, i32 0, i32 1
  %93 = load i32, ptr %92, align 4
  %94 = icmp slt i32 %89, %93
  br i1 %94, label %95, label %104

95:                                               ; preds = %87
  %96 = getelementptr inbounds nuw %struct.ForEachState, ptr %13, i32 0, i32 0
  %97 = load ptr, ptr %96, align 8
  %98 = getelementptr inbounds nuw %struct.List, ptr %97, i32 0, i32 3
  %99 = load ptr, ptr %98, align 8
  %100 = getelementptr inbounds nuw %struct.ForEachState, ptr %13, i32 0, i32 1
  %101 = load i32, ptr %100, align 8
  %102 = sext i32 %101 to i64
  %103 = getelementptr inbounds %union.ListCell, ptr %99, i64 %102
  store ptr %103, ptr %9, align 8
  br label %105

104:                                              ; preds = %87, %83
  store ptr null, ptr %9, align 8
  br label %105

105:                                              ; preds = %104, %95
  %106 = phi i32 [ 1, %95 ], [ 0, %104 ]
  %107 = icmp ne i32 %106, 0
  br i1 %107, label %109, label %108

108:                                              ; preds = %105
  call void @llvm.lifetime.end.p0(i64 16, ptr %13) #8
  br label %126

109:                                              ; preds = %105
  call void @llvm.lifetime.start.p0(i64 8, ptr %14) #8
  %110 = load ptr, ptr %9, align 8
  %111 = load ptr, ptr %110, align 8
  store ptr %111, ptr %14, align 8
  call void @llvm.lifetime.start.p0(i64 8, ptr %15) #8
  %112 = load ptr, ptr %3, align 8
  %113 = load ptr, ptr %14, align 8
  %114 = load ptr, ptr %5, align 8
  %115 = getelementptr inbounds nuw %struct.MinMaxExpr, ptr %114, i32 0, i32 1
  %116 = load i32, ptr %115, align 4
  %117 = load ptr, ptr %8, align 8
  %118 = call ptr @coerce_to_common_type(ptr noundef %112, ptr noundef %113, i32 noundef %116, ptr noundef %117)
  store ptr %118, ptr %15, align 8
  %119 = load ptr, ptr %7, align 8
  %120 = load ptr, ptr %15, align 8
  %121 = call ptr @lappend(ptr noundef %119, ptr noundef %120)
  store ptr %121, ptr %7, align 8
  call void @llvm.lifetime.end.p0(i64 8, ptr %15) #8
  call void @llvm.lifetime.end.p0(i64 8, ptr %14) #8
  br label %122

122:                                              ; preds = %109
  %123 = getelementptr inbounds nuw %struct.ForEachState, ptr %13, i32 0, i32 1
  %124 = load i32, ptr %123, align 8
  %125 = add i32 %124, 1
  store i32 %125, ptr %123, align 8
  br label %83, !llvm.loop !24

126:                                              ; preds = %108
  %127 = load ptr, ptr %7, align 8
  %128 = load ptr, ptr %5, align 8
  %129 = getelementptr inbounds nuw %struct.MinMaxExpr, ptr %128, i32 0, i32 5
  store ptr %127, ptr %129, align 8
  %130 = load ptr, ptr %4, align 8
  %131 = getelementptr inbounds nuw %struct.MinMaxExpr, ptr %130, i32 0, i32 6
  %132 = load i32, ptr %131, align 8
  %133 = load ptr, ptr %5, align 8
  %134 = getelementptr inbounds nuw %struct.MinMaxExpr, ptr %133, i32 0, i32 6
  store i32 %132, ptr %134, align 8
  %135 = load ptr, ptr %5, align 8
  call void @llvm.lifetime.end.p0(i64 8, ptr %9) #8
  call void @llvm.lifetime.end.p0(i64 8, ptr %8) #8
  call void @llvm.lifetime.end.p0(i64 8, ptr %7) #8
  call void @llvm.lifetime.end.p0(i64 8, ptr %6) #8
  call void @llvm.lifetime.end.p0(i64 8, ptr %5) #8
  ret ptr %135
}