; Function Attrs: nounwind uwtable
define internal fastcc noundef ptr @transformMinMaxExpr(ptr noundef %0, ptr noundef nonnull readonly captures(none) %1) unnamed_addr #0 {
  %3 = tail call noundef ptr @palloc0(i64 noundef 40) #9
  store i32 39, ptr %3, align 4
  %4 = getelementptr inbounds nuw i8, ptr %1, i64 16
  %5 = load i32, ptr %4, align 8
  %6 = icmp eq i32 %5, 0
  %7 = select i1 %6, ptr @.str.114, ptr @.str.115
  %8 = getelementptr inbounds nuw i8, ptr %3, i64 16
  store i32 %5, ptr %8, align 8
  %9 = getelementptr inbounds nuw i8, ptr %1, i64 24
  %10 = load ptr, ptr %9, align 8
  %11 = getelementptr inbounds nuw i8, ptr %10, i64 4
  %.not = icmp eq ptr %10, null
  br i1 %.not, label %._crit_edge.thread, label %.lr.ph

.lr.ph:                                           ; preds = %2
  %12 = getelementptr inbounds nuw i8, ptr %10, i64 16
  %13 = load i32, ptr %11, align 4
  %14 = icmp sgt i32 %13, 0
  br i1 %14, label %.lr.ph56, label %._crit_edge.thread

._crit_edge.thread:                               ; preds = %2, %.lr.ph
  %15 = tail call i32 @select_common_type(ptr noundef %0, ptr noundef null, ptr noundef nonnull %7, ptr noundef null) #9
  %16 = getelementptr inbounds nuw i8, ptr %3, i64 4
  store i32 %15, ptr %16, align 4
  br label %._crit_edge62

._crit_edge:                                      ; preds = %.lr.ph56
  %17 = tail call i32 @select_common_type(ptr noundef %0, ptr noundef %27, ptr noundef nonnull %7, ptr noundef null) #9
  %18 = getelementptr inbounds nuw i8, ptr %3, i64 4
  store i32 %17, ptr %18, align 4
  %19 = getelementptr inbounds nuw i8, ptr %27, i64 4
  %.not41 = icmp eq ptr %27, null
  br i1 %.not41, label %._crit_edge62, label %.lr.ph61

.lr.ph61:                                         ; preds = %._crit_edge
  %20 = getelementptr inbounds nuw i8, ptr %27, i64 16
  %21 = load i32, ptr %19, align 4
  %22 = icmp sgt i32 %21, 0
  br i1 %22, label %.lr.ph70, label %._crit_edge62

.lr.ph56:                                         ; preds = %.lr.ph, %.lr.ph56
  %indvars.iv = phi i64 [ %indvars.iv.next, %.lr.ph56 ], [ 0, %.lr.ph ]
  %.05054 = phi ptr [ %27, %.lr.ph56 ], [ null, %.lr.ph ]
  %23 = load ptr, ptr %12, align 8
  %24 = getelementptr inbounds nuw %union.ListCell, ptr %23, i64 %indvars.iv
  %25 = load ptr, ptr %24, align 8
  %26 = tail call fastcc ptr @transformExprRecurse(ptr noundef %0, ptr noundef %25)
  %27 = tail call ptr @lappend(ptr noundef %.05054, ptr noundef %26) #9
  %indvars.iv.next = add nuw nsw i64 %indvars.iv, 1
  %28 = load i32, ptr %11, align 4
  %29 = sext i32 %28 to i64
  %30 = icmp slt i64 %indvars.iv.next, %29
  br i1 %30, label %.lr.ph56, label %._crit_edge

._crit_edge62:                                    ; preds = %.lr.ph70, %._crit_edge.thread, %.lr.ph61, %._crit_edge
  %.037.lcssa = phi ptr [ null, %._crit_edge ], [ null, %.lr.ph61 ], [ null, %._crit_edge.thread ], [ %40, %.lr.ph70 ]
  %31 = getelementptr inbounds nuw i8, ptr %3, i64 24
  store ptr %.037.lcssa, ptr %31, align 8
  %32 = getelementptr inbounds nuw i8, ptr %1, i64 32
  %33 = load i32, ptr %32, align 8
  %34 = getelementptr inbounds nuw i8, ptr %3, i64 32
  store i32 %33, ptr %34, align 8
  ret ptr %3

.lr.ph70:                                         ; preds = %.lr.ph61, %.lr.ph70
  %indvars.iv74 = phi i64 [ %indvars.iv.next75, %.lr.ph70 ], [ 0, %.lr.ph61 ]
  %.0375968 = phi ptr [ %40, %.lr.ph70 ], [ null, %.lr.ph61 ]
  %35 = load ptr, ptr %20, align 8
  %36 = getelementptr inbounds nuw %union.ListCell, ptr %35, i64 %indvars.iv74
  %37 = load ptr, ptr %36, align 8
  %38 = load i32, ptr %18, align 4
  %39 = tail call ptr @coerce_to_common_type(ptr noundef %0, ptr noundef %37, i32 noundef %38, ptr noundef nonnull %7) #9
  %40 = tail call ptr @lappend(ptr noundef %.0375968, ptr noundef %39) #9
  %indvars.iv.next75 = add nuw nsw i64 %indvars.iv74, 1
  %41 = load i32, ptr %19, align 4
  %42 = sext i32 %41 to i64
  %43 = icmp slt i64 %indvars.iv.next75, %42
  br i1 %43, label %.lr.ph70, label %._crit_edge62
}